
Transmitter Mc.elf:     file format elf32-avr

Sections:
Idx Name          Size      VMA       LMA       File off  Algn
  0 .text         000006a4  00000000  00000000  00000074  2**1
                  CONTENTS, ALLOC, LOAD, READONLY, CODE
  1 .data         00000024  00800060  000006a4  00000718  2**0
                  CONTENTS, ALLOC, LOAD, DATA
  2 .comment      00000030  00000000  00000000  0000073c  2**0
                  CONTENTS, READONLY
  3 .debug_aranges 00000198  00000000  00000000  0000076c  2**0
                  CONTENTS, READONLY, DEBUGGING
  4 .debug_info   000016b6  00000000  00000000  00000904  2**0
                  CONTENTS, READONLY, DEBUGGING
  5 .debug_abbrev 000008df  00000000  00000000  00001fba  2**0
                  CONTENTS, READONLY, DEBUGGING
  6 .debug_line   000007ab  00000000  00000000  00002899  2**0
                  CONTENTS, READONLY, DEBUGGING
  7 .debug_frame  000004b8  00000000  00000000  00003044  2**2
                  CONTENTS, READONLY, DEBUGGING
  8 .debug_str    0000071c  00000000  00000000  000034fc  2**0
                  CONTENTS, READONLY, DEBUGGING
  9 .debug_loc    00000d2d  00000000  00000000  00003c18  2**0
                  CONTENTS, READONLY, DEBUGGING
 10 .debug_ranges 00000148  00000000  00000000  00004945  2**0
                  CONTENTS, READONLY, DEBUGGING

Disassembly of section .text:

00000000 <__vectors>:
   0:	0c 94 2a 00 	jmp	0x54	; 0x54 <__ctors_end>
   4:	0c 94 0d 01 	jmp	0x21a	; 0x21a <__vector_1>
   8:	0c 94 3b 01 	jmp	0x276	; 0x276 <__vector_2>
   c:	0c 94 69 01 	jmp	0x2d2	; 0x2d2 <__vector_3>
  10:	0c 94 47 00 	jmp	0x8e	; 0x8e <__bad_interrupt>
  14:	0c 94 47 00 	jmp	0x8e	; 0x8e <__bad_interrupt>
  18:	0c 94 47 00 	jmp	0x8e	; 0x8e <__bad_interrupt>
  1c:	0c 94 47 00 	jmp	0x8e	; 0x8e <__bad_interrupt>
  20:	0c 94 47 00 	jmp	0x8e	; 0x8e <__bad_interrupt>
  24:	0c 94 47 00 	jmp	0x8e	; 0x8e <__bad_interrupt>
  28:	0c 94 47 00 	jmp	0x8e	; 0x8e <__bad_interrupt>
  2c:	0c 94 47 00 	jmp	0x8e	; 0x8e <__bad_interrupt>
  30:	0c 94 47 00 	jmp	0x8e	; 0x8e <__bad_interrupt>
  34:	0c 94 0c 02 	jmp	0x418	; 0x418 <__vector_13>
  38:	0c 94 37 02 	jmp	0x46e	; 0x46e <__vector_14>
  3c:	0c 94 62 02 	jmp	0x4c4	; 0x4c4 <__vector_15>
  40:	0c 94 47 00 	jmp	0x8e	; 0x8e <__bad_interrupt>
  44:	0c 94 47 00 	jmp	0x8e	; 0x8e <__bad_interrupt>
  48:	0c 94 47 00 	jmp	0x8e	; 0x8e <__bad_interrupt>
  4c:	0c 94 47 00 	jmp	0x8e	; 0x8e <__bad_interrupt>
  50:	0c 94 47 00 	jmp	0x8e	; 0x8e <__bad_interrupt>

00000054 <__ctors_end>:
  54:	11 24       	eor	r1, r1
  56:	1f be       	out	0x3f, r1	; 63
  58:	cf e5       	ldi	r28, 0x5F	; 95
  5a:	d8 e0       	ldi	r29, 0x08	; 8
  5c:	de bf       	out	0x3e, r29	; 62
  5e:	cd bf       	out	0x3d, r28	; 61

00000060 <__do_copy_data>:
  60:	10 e0       	ldi	r17, 0x00	; 0
  62:	a0 e6       	ldi	r26, 0x60	; 96
  64:	b0 e0       	ldi	r27, 0x00	; 0
  66:	e4 ea       	ldi	r30, 0xA4	; 164
  68:	f6 e0       	ldi	r31, 0x06	; 6
  6a:	02 c0       	rjmp	.+4      	; 0x70 <__do_copy_data+0x10>
  6c:	05 90       	lpm	r0, Z+
  6e:	0d 92       	st	X+, r0
  70:	a4 38       	cpi	r26, 0x84	; 132
  72:	b1 07       	cpc	r27, r17
  74:	d9 f7       	brne	.-10     	; 0x6c <__do_copy_data+0xc>

00000076 <__do_clear_bss>:
  76:	20 e0       	ldi	r18, 0x00	; 0
  78:	a4 e8       	ldi	r26, 0x84	; 132
  7a:	b0 e0       	ldi	r27, 0x00	; 0
  7c:	01 c0       	rjmp	.+2      	; 0x80 <.do_clear_bss_start>

0000007e <.do_clear_bss_loop>:
  7e:	1d 92       	st	X+, r1

00000080 <.do_clear_bss_start>:
  80:	a4 38       	cpi	r26, 0x84	; 132
  82:	b2 07       	cpc	r27, r18
  84:	e1 f7       	brne	.-8      	; 0x7e <.do_clear_bss_loop>
  86:	0e 94 3b 03 	call	0x676	; 0x676 <main>
  8a:	0c 94 50 03 	jmp	0x6a0	; 0x6a0 <_exit>

0000008e <__bad_interrupt>:
  8e:	0c 94 00 00 	jmp	0	; 0x0 <__vectors>

00000092 <External_interrupt_Configure>:
static void(*volatile   pfunction_INT2)(void)= NULL;


void External_interrupt_Configure(External_interrupt EXt_interrupt ,Modes_Ext_INTERRUPT modes_interrupt )  /*function used seting or comfigure external interrupt */
{
	switch(EXt_interrupt){
  92:	81 30       	cpi	r24, 0x01	; 1
  94:	d1 f0       	breq	.+52     	; 0xca <External_interrupt_Configure+0x38>
  96:	58 f0       	brcs	.+22     	; 0xae <External_interrupt_Configure+0x1c>
  98:	82 30       	cpi	r24, 0x02	; 2
  9a:	41 f4       	brne	.+16     	; 0xac <External_interrupt_Configure+0x1a>
			}
		
		break;
		
		case INT2:
		switch(modes_interrupt){
  9c:	66 23       	and	r22, r22
  9e:	19 f1       	breq	.+70     	; 0xe6 <External_interrupt_Configure+0x54>
  a0:	61 30       	cpi	r22, 0x01	; 1
  a2:	21 f5       	brne	.+72     	; 0xec <External_interrupt_Configure+0x5a>
		
			case FALLING_EDGE:
			ClearBit(MCUCSR->Fullbits,ISC2);
  a4:	84 b7       	in	r24, 0x34	; 52
  a6:	8f 7b       	andi	r24, 0xBF	; 191
  a8:	84 bf       	out	0x34, r24	; 52
			break;
  aa:	08 95       	ret
  ac:	08 95       	ret

void External_interrupt_Configure(External_interrupt EXt_interrupt ,Modes_Ext_INTERRUPT modes_interrupt )  /*function used seting or comfigure external interrupt */
{
	switch(EXt_interrupt){
		case INT0:
		switch(modes_interrupt){
  ae:	61 30       	cpi	r22, 0x01	; 1
  b0:	99 f1       	breq	.+102    	; 0x118 <External_interrupt_Configure+0x86>
  b2:	20 f1       	brcs	.+72     	; 0xfc <External_interrupt_Configure+0x6a>
  b4:	62 30       	cpi	r22, 0x02	; 2
  b6:	49 f1       	breq	.+82     	; 0x10a <External_interrupt_Configure+0x78>
  b8:	63 30       	cpi	r22, 0x03	; 3
  ba:	c1 f4       	brne	.+48     	; 0xec <External_interrupt_Configure+0x5a>
			case ANY_LOGICAL_Change: 
			
			SeTBit(MCUCR->Fullbits,ISC00);
  bc:	85 b7       	in	r24, 0x35	; 53
  be:	81 60       	ori	r24, 0x01	; 1
  c0:	85 bf       	out	0x35, r24	; 53
			ClearBit(MCUCR->Fullbits,ISC01);
  c2:	85 b7       	in	r24, 0x35	; 53
  c4:	8d 7f       	andi	r24, 0xFD	; 253
  c6:	85 bf       	out	0x35, r24	; 53
			break;
  c8:	08 95       	ret
		}
		
		break;
		
		case INT1:
			switch(modes_interrupt){
  ca:	61 30       	cpi	r22, 0x01	; 1
  cc:	61 f1       	breq	.+88     	; 0x126 <External_interrupt_Configure+0x94>
  ce:	78 f0       	brcs	.+30     	; 0xee <External_interrupt_Configure+0x5c>
  d0:	62 30       	cpi	r22, 0x02	; 2
  d2:	81 f1       	breq	.+96     	; 0x134 <External_interrupt_Configure+0xa2>
  d4:	63 30       	cpi	r22, 0x03	; 3
  d6:	51 f4       	brne	.+20     	; 0xec <External_interrupt_Configure+0x5a>
				case ANY_LOGICAL_Change:
				SeTBit(MCUCR->Fullbits,ISC10);
  d8:	85 b7       	in	r24, 0x35	; 53
  da:	84 60       	ori	r24, 0x04	; 4
  dc:	85 bf       	out	0x35, r24	; 53
					ClearBit(MCUCR->Fullbits,ISC11);
  de:	85 b7       	in	r24, 0x35	; 53
  e0:	87 7f       	andi	r24, 0xF7	; 247
  e2:	85 bf       	out	0x35, r24	; 53
				break;
  e4:	08 95       	ret
		
			case FALLING_EDGE:
			ClearBit(MCUCSR->Fullbits,ISC2);
			break;
			case RISING_EDGE:
			SeTBit(MCUCSR->Fullbits,ISC2);
  e6:	84 b7       	in	r24, 0x34	; 52
  e8:	80 64       	ori	r24, 0x40	; 64
  ea:	84 bf       	out	0x34, r24	; 52
  ec:	08 95       	ret
				case FALLING_EDGE:
					ClearBit(MCUCR->Fullbits,ISC10);
				SeTBit(MCUCR->Fullbits,ISC11);
				break;
				case RISING_EDGE:
				SeTBit(MCUCR->Fullbits,ISC10);
  ee:	85 b7       	in	r24, 0x35	; 53
  f0:	84 60       	ori	r24, 0x04	; 4
  f2:	85 bf       	out	0x35, r24	; 53
				SeTBit(MCUCR->Fullbits,ISC11);
  f4:	85 b7       	in	r24, 0x35	; 53
  f6:	88 60       	ori	r24, 0x08	; 8
  f8:	85 bf       	out	0x35, r24	; 53
				break;
  fa:	08 95       	ret
			case FALLING_EDGE:
				ClearBit(MCUCR->Fullbits,ISC00);
			SeTBit(MCUCR->Fullbits,ISC01);
			break;
			case RISING_EDGE:
			SeTBit(MCUCR->Fullbits,ISC00);
  fc:	85 b7       	in	r24, 0x35	; 53
  fe:	81 60       	ori	r24, 0x01	; 1
 100:	85 bf       	out	0x35, r24	; 53
			SeTBit(MCUCR->Fullbits,ISC01);
 102:	85 b7       	in	r24, 0x35	; 53
 104:	82 60       	ori	r24, 0x02	; 2
 106:	85 bf       	out	0x35, r24	; 53
			break;
 108:	08 95       	ret
			case LOW_LEVEL:
				ClearBit(MCUCR->Fullbits,ISC00);
 10a:	85 b7       	in	r24, 0x35	; 53
 10c:	8e 7f       	andi	r24, 0xFE	; 254
 10e:	85 bf       	out	0x35, r24	; 53
				ClearBit(MCUCR->Fullbits,ISC01);
 110:	85 b7       	in	r24, 0x35	; 53
 112:	8d 7f       	andi	r24, 0xFD	; 253
 114:	85 bf       	out	0x35, r24	; 53
			break;
 116:	08 95       	ret
			
			SeTBit(MCUCR->Fullbits,ISC00);
			ClearBit(MCUCR->Fullbits,ISC01);
			break;
			case FALLING_EDGE:
				ClearBit(MCUCR->Fullbits,ISC00);
 118:	85 b7       	in	r24, 0x35	; 53
 11a:	8e 7f       	andi	r24, 0xFE	; 254
 11c:	85 bf       	out	0x35, r24	; 53
			SeTBit(MCUCR->Fullbits,ISC01);
 11e:	85 b7       	in	r24, 0x35	; 53
 120:	82 60       	ori	r24, 0x02	; 2
 122:	85 bf       	out	0x35, r24	; 53
			break;
 124:	08 95       	ret
				case ANY_LOGICAL_Change:
				SeTBit(MCUCR->Fullbits,ISC10);
					ClearBit(MCUCR->Fullbits,ISC11);
				break;
				case FALLING_EDGE:
					ClearBit(MCUCR->Fullbits,ISC10);
 126:	85 b7       	in	r24, 0x35	; 53
 128:	8b 7f       	andi	r24, 0xFB	; 251
 12a:	85 bf       	out	0x35, r24	; 53
				SeTBit(MCUCR->Fullbits,ISC11);
 12c:	85 b7       	in	r24, 0x35	; 53
 12e:	88 60       	ori	r24, 0x08	; 8
 130:	85 bf       	out	0x35, r24	; 53
				break;
 132:	08 95       	ret
				case RISING_EDGE:
				SeTBit(MCUCR->Fullbits,ISC10);
				SeTBit(MCUCR->Fullbits,ISC11);
				break;
				case LOW_LEVEL:
			ClearBit(MCUCR->Fullbits,ISC10);
 134:	85 b7       	in	r24, 0x35	; 53
 136:	8b 7f       	andi	r24, 0xFB	; 251
 138:	85 bf       	out	0x35, r24	; 53
					ClearBit(MCUCR->Fullbits,ISC11);
 13a:	85 b7       	in	r24, 0x35	; 53
 13c:	87 7f       	andi	r24, 0xF7	; 247
 13e:	85 bf       	out	0x35, r24	; 53
				break;
 140:	08 95       	ret

00000142 <Enable_External_interrupt>:
	}
}
	
void Enable_External_interrupt(External_interrupt interrupt){ /*function enable interrupt*/
	
	switch(interrupt){
 142:	81 30       	cpi	r24, 0x01	; 1
 144:	21 f1       	breq	.+72     	; 0x18e <Enable_External_interrupt+0x4c>
 146:	98 f0       	brcs	.+38     	; 0x16e <Enable_External_interrupt+0x2c>
 148:	82 30       	cpi	r24, 0x02	; 2
 14a:	81 f4       	brne	.+32     	; 0x16c <Enable_External_interrupt+0x2a>
			DIO_SetPinValue(PIND ,3,HIGH );

		SeTBit(GICR->Fullbits,INT1_GICR);
		break;
		case INT2:
			DIO_Init_PIN(PIND,2 ,InputPullup);
 14c:	40 e0       	ldi	r20, 0x00	; 0
 14e:	62 e0       	ldi	r22, 0x02	; 2
 150:	80 e3       	ldi	r24, 0x30	; 48
 152:	90 e0       	ldi	r25, 0x00	; 0
 154:	0e 94 97 01 	call	0x32e	; 0x32e <DIO_Init_PIN>
			DIO_SetPinValue(PIND ,2,HIGH );
 158:	41 e0       	ldi	r20, 0x01	; 1
 15a:	62 e0       	ldi	r22, 0x02	; 2
 15c:	80 e3       	ldi	r24, 0x30	; 48
 15e:	90 e0       	ldi	r25, 0x00	; 0
 160:	0e 94 cb 01 	call	0x396	; 0x396 <DIO_SetPinValue>

		SeTBit(GICR->Fullbits,INT2_GICR);
 164:	8b b7       	in	r24, 0x3b	; 59
 166:	80 62       	ori	r24, 0x20	; 32
 168:	8b bf       	out	0x3b, r24	; 59
 16a:	08 95       	ret
 16c:	08 95       	ret
	
void Enable_External_interrupt(External_interrupt interrupt){ /*function enable interrupt*/
	
	switch(interrupt){
		case INT0:
			DIO_Init_PIN(PIND,2 ,InputPullup);
 16e:	40 e0       	ldi	r20, 0x00	; 0
 170:	62 e0       	ldi	r22, 0x02	; 2
 172:	80 e3       	ldi	r24, 0x30	; 48
 174:	90 e0       	ldi	r25, 0x00	; 0
 176:	0e 94 97 01 	call	0x32e	; 0x32e <DIO_Init_PIN>
			DIO_SetPinValue(PIND ,2,HIGH );
 17a:	41 e0       	ldi	r20, 0x01	; 1
 17c:	62 e0       	ldi	r22, 0x02	; 2
 17e:	80 e3       	ldi	r24, 0x30	; 48
 180:	90 e0       	ldi	r25, 0x00	; 0
 182:	0e 94 cb 01 	call	0x396	; 0x396 <DIO_SetPinValue>
		SeTBit(GICR->Fullbits,INT0_GICR);
 186:	8b b7       	in	r24, 0x3b	; 59
 188:	80 64       	ori	r24, 0x40	; 64
 18a:	8b bf       	out	0x3b, r24	; 59
		break;
 18c:	08 95       	ret
		case INT1:
			DIO_Init_PIN(PIND,3 ,InputPullup);
 18e:	40 e0       	ldi	r20, 0x00	; 0
 190:	63 e0       	ldi	r22, 0x03	; 3
 192:	80 e3       	ldi	r24, 0x30	; 48
 194:	90 e0       	ldi	r25, 0x00	; 0
 196:	0e 94 97 01 	call	0x32e	; 0x32e <DIO_Init_PIN>
			DIO_SetPinValue(PIND ,3,HIGH );
 19a:	41 e0       	ldi	r20, 0x01	; 1
 19c:	63 e0       	ldi	r22, 0x03	; 3
 19e:	80 e3       	ldi	r24, 0x30	; 48
 1a0:	90 e0       	ldi	r25, 0x00	; 0
 1a2:	0e 94 cb 01 	call	0x396	; 0x396 <DIO_SetPinValue>

		SeTBit(GICR->Fullbits,INT1_GICR);
 1a6:	8b b7       	in	r24, 0x3b	; 59
 1a8:	80 68       	ori	r24, 0x80	; 128
 1aa:	8b bf       	out	0x3b, r24	; 59
		break;
 1ac:	08 95       	ret

000001ae <SetCallBackFunction>:
	if( pfunction_INT2 !=NULL)
	 pfunction_INT2();
}*/

/*--------------------SET CALL BACK function -------*/
void SetCallBackFunction(External_interrupt ext_interrupt ,void (*volatile pf_INT) (void )){
 1ae:	cf 93       	push	r28
 1b0:	df 93       	push	r29
 1b2:	00 d0       	rcall	.+0      	; 0x1b4 <SetCallBackFunction+0x6>
 1b4:	cd b7       	in	r28, 0x3d	; 61
 1b6:	de b7       	in	r29, 0x3e	; 62
 1b8:	7a 83       	std	Y+2, r23	; 0x02
 1ba:	69 83       	std	Y+1, r22	; 0x01
	if(pf_INT!=NULL)
 1bc:	29 81       	ldd	r18, Y+1	; 0x01
 1be:	3a 81       	ldd	r19, Y+2	; 0x02
 1c0:	2f 3f       	cpi	r18, 0xFF	; 255
 1c2:	3f 40       	sbci	r19, 0x0F	; 15
 1c4:	59 f0       	breq	.+22     	; 0x1dc <SetCallBackFunction+0x2e>
	{
		switch(ext_interrupt){
 1c6:	81 30       	cpi	r24, 0x01	; 1
 1c8:	c9 f0       	breq	.+50     	; 0x1fc <SetCallBackFunction+0x4e>
 1ca:	68 f0       	brcs	.+26     	; 0x1e6 <SetCallBackFunction+0x38>
 1cc:	82 30       	cpi	r24, 0x02	; 2
 1ce:	31 f4       	brne	.+12     	; 0x1dc <SetCallBackFunction+0x2e>
			break;
			case INT1:
				gptr[1]=pf_INT;
			break;
			case INT2:
				gptr[2]=pf_INT;
 1d0:	89 81       	ldd	r24, Y+1	; 0x01
 1d2:	9a 81       	ldd	r25, Y+2	; 0x02
 1d4:	90 93 65 00 	sts	0x0065, r25
 1d8:	80 93 64 00 	sts	0x0064, r24
			break;
		}

	}
}
 1dc:	0f 90       	pop	r0
 1de:	0f 90       	pop	r0
 1e0:	df 91       	pop	r29
 1e2:	cf 91       	pop	r28
 1e4:	08 95       	ret
void SetCallBackFunction(External_interrupt ext_interrupt ,void (*volatile pf_INT) (void )){
	if(pf_INT!=NULL)
	{
		switch(ext_interrupt){
			case INT0:
				gptr[0]=pf_INT;
 1e6:	89 81       	ldd	r24, Y+1	; 0x01
 1e8:	9a 81       	ldd	r25, Y+2	; 0x02
 1ea:	90 93 61 00 	sts	0x0061, r25
 1ee:	80 93 60 00 	sts	0x0060, r24
				gptr[2]=pf_INT;
			break;
		}

	}
}
 1f2:	0f 90       	pop	r0
 1f4:	0f 90       	pop	r0
 1f6:	df 91       	pop	r29
 1f8:	cf 91       	pop	r28
 1fa:	08 95       	ret
			case INT0:
				gptr[0]=pf_INT;

			break;
			case INT1:
				gptr[1]=pf_INT;
 1fc:	89 81       	ldd	r24, Y+1	; 0x01
 1fe:	9a 81       	ldd	r25, Y+2	; 0x02
 200:	90 93 63 00 	sts	0x0063, r25
 204:	80 93 62 00 	sts	0x0062, r24
				gptr[2]=pf_INT;
			break;
		}

	}
}
 208:	0f 90       	pop	r0
 20a:	0f 90       	pop	r0
 20c:	df 91       	pop	r29
 20e:	cf 91       	pop	r28
 210:	08 95       	ret

00000212 <MCU_voidEnableGlobalInt>:

void MCU_voidEnableGlobalInt(void)
{
	SeTBit(SREG,7);
 212:	8f b7       	in	r24, 0x3f	; 63
 214:	80 68       	ori	r24, 0x80	; 128
 216:	8f bf       	out	0x3f, r24	; 63
 218:	08 95       	ret

0000021a <__vector_1>:
}

void __vector_1 (void)
{
 21a:	1f 92       	push	r1
 21c:	0f 92       	push	r0
 21e:	0f b6       	in	r0, 0x3f	; 63
 220:	0f 92       	push	r0
 222:	11 24       	eor	r1, r1
 224:	2f 93       	push	r18
 226:	3f 93       	push	r19
 228:	4f 93       	push	r20
 22a:	5f 93       	push	r21
 22c:	6f 93       	push	r22
 22e:	7f 93       	push	r23
 230:	8f 93       	push	r24
 232:	9f 93       	push	r25
 234:	af 93       	push	r26
 236:	bf 93       	push	r27
 238:	ef 93       	push	r30
 23a:	ff 93       	push	r31
	if(gptr[0]!=NULL)
 23c:	e0 91 60 00 	lds	r30, 0x0060
 240:	f0 91 61 00 	lds	r31, 0x0061
 244:	ef 3f       	cpi	r30, 0xFF	; 255
 246:	8f e0       	ldi	r24, 0x0F	; 15
 248:	f8 07       	cpc	r31, r24
 24a:	09 f0       	breq	.+2      	; 0x24e <__vector_1+0x34>
		(*gptr[0])();
 24c:	09 95       	icall
	}
}

void MCU_voidEnableGlobalInt(void)
{
	SeTBit(SREG,7);
 24e:	8f b7       	in	r24, 0x3f	; 63
 250:	80 68       	ori	r24, 0x80	; 128
 252:	8f bf       	out	0x3f, r24	; 63
void __vector_1 (void)
{
	if(gptr[0]!=NULL)
		(*gptr[0])();
	MCU_voidEnableGlobalInt();
}
 254:	ff 91       	pop	r31
 256:	ef 91       	pop	r30
 258:	bf 91       	pop	r27
 25a:	af 91       	pop	r26
 25c:	9f 91       	pop	r25
 25e:	8f 91       	pop	r24
 260:	7f 91       	pop	r23
 262:	6f 91       	pop	r22
 264:	5f 91       	pop	r21
 266:	4f 91       	pop	r20
 268:	3f 91       	pop	r19
 26a:	2f 91       	pop	r18
 26c:	0f 90       	pop	r0
 26e:	0f be       	out	0x3f, r0	; 63
 270:	0f 90       	pop	r0
 272:	1f 90       	pop	r1
 274:	18 95       	reti

00000276 <__vector_2>:

void __vector_2 (void)
{
 276:	1f 92       	push	r1
 278:	0f 92       	push	r0
 27a:	0f b6       	in	r0, 0x3f	; 63
 27c:	0f 92       	push	r0
 27e:	11 24       	eor	r1, r1
 280:	2f 93       	push	r18
 282:	3f 93       	push	r19
 284:	4f 93       	push	r20
 286:	5f 93       	push	r21
 288:	6f 93       	push	r22
 28a:	7f 93       	push	r23
 28c:	8f 93       	push	r24
 28e:	9f 93       	push	r25
 290:	af 93       	push	r26
 292:	bf 93       	push	r27
 294:	ef 93       	push	r30
 296:	ff 93       	push	r31
	if(gptr[1]!=NULL)
 298:	e0 91 62 00 	lds	r30, 0x0062
 29c:	f0 91 63 00 	lds	r31, 0x0063
 2a0:	ef 3f       	cpi	r30, 0xFF	; 255
 2a2:	8f e0       	ldi	r24, 0x0F	; 15
 2a4:	f8 07       	cpc	r31, r24
 2a6:	09 f0       	breq	.+2      	; 0x2aa <__vector_2+0x34>
		(*gptr[1])();
 2a8:	09 95       	icall
	}
}

void MCU_voidEnableGlobalInt(void)
{
	SeTBit(SREG,7);
 2aa:	8f b7       	in	r24, 0x3f	; 63
 2ac:	80 68       	ori	r24, 0x80	; 128
 2ae:	8f bf       	out	0x3f, r24	; 63
void __vector_2 (void)
{
	if(gptr[1]!=NULL)
		(*gptr[1])();
	MCU_voidEnableGlobalInt();
}
 2b0:	ff 91       	pop	r31
 2b2:	ef 91       	pop	r30
 2b4:	bf 91       	pop	r27
 2b6:	af 91       	pop	r26
 2b8:	9f 91       	pop	r25
 2ba:	8f 91       	pop	r24
 2bc:	7f 91       	pop	r23
 2be:	6f 91       	pop	r22
 2c0:	5f 91       	pop	r21
 2c2:	4f 91       	pop	r20
 2c4:	3f 91       	pop	r19
 2c6:	2f 91       	pop	r18
 2c8:	0f 90       	pop	r0
 2ca:	0f be       	out	0x3f, r0	; 63
 2cc:	0f 90       	pop	r0
 2ce:	1f 90       	pop	r1
 2d0:	18 95       	reti

000002d2 <__vector_3>:

void __vector_3 (void)
{
 2d2:	1f 92       	push	r1
 2d4:	0f 92       	push	r0
 2d6:	0f b6       	in	r0, 0x3f	; 63
 2d8:	0f 92       	push	r0
 2da:	11 24       	eor	r1, r1
 2dc:	2f 93       	push	r18
 2de:	3f 93       	push	r19
 2e0:	4f 93       	push	r20
 2e2:	5f 93       	push	r21
 2e4:	6f 93       	push	r22
 2e6:	7f 93       	push	r23
 2e8:	8f 93       	push	r24
 2ea:	9f 93       	push	r25
 2ec:	af 93       	push	r26
 2ee:	bf 93       	push	r27
 2f0:	ef 93       	push	r30
 2f2:	ff 93       	push	r31
	if(gptr[2]!=NULL)
 2f4:	e0 91 64 00 	lds	r30, 0x0064
 2f8:	f0 91 65 00 	lds	r31, 0x0065
 2fc:	ef 3f       	cpi	r30, 0xFF	; 255
 2fe:	8f e0       	ldi	r24, 0x0F	; 15
 300:	f8 07       	cpc	r31, r24
 302:	09 f0       	breq	.+2      	; 0x306 <__vector_3+0x34>
		(*gptr[2])();
 304:	09 95       	icall
	}
}

void MCU_voidEnableGlobalInt(void)
{
	SeTBit(SREG,7);
 306:	8f b7       	in	r24, 0x3f	; 63
 308:	80 68       	ori	r24, 0x80	; 128
 30a:	8f bf       	out	0x3f, r24	; 63
void __vector_3 (void)
{
	if(gptr[2]!=NULL)
		(*gptr[2])();
	MCU_voidEnableGlobalInt();
}
 30c:	ff 91       	pop	r31
 30e:	ef 91       	pop	r30
 310:	bf 91       	pop	r27
 312:	af 91       	pop	r26
 314:	9f 91       	pop	r25
 316:	8f 91       	pop	r24
 318:	7f 91       	pop	r23
 31a:	6f 91       	pop	r22
 31c:	5f 91       	pop	r21
 31e:	4f 91       	pop	r20
 320:	3f 91       	pop	r19
 322:	2f 91       	pop	r18
 324:	0f 90       	pop	r0
 326:	0f be       	out	0x3f, r0	; 63
 328:	0f 90       	pop	r0
 32a:	1f 90       	pop	r1
 32c:	18 95       	reti

0000032e <DIO_Init_PIN>:
			}
	}
	
}

void DIO_Init_PIN(DIO_Configure *DIO,pinNumber pinNum ,Mode mode){//DIO_Init_PIN(PINB,num,mode output);
 32e:	fc 01       	movw	r30, r24
	switch(mode){
 330:	41 30       	cpi	r20, 0x01	; 1
 332:	11 f1       	breq	.+68     	; 0x378 <DIO_Init_PIN+0x4a>
 334:	90 f0       	brcs	.+36     	; 0x35a <DIO_Init_PIN+0x2c>
 336:	42 30       	cpi	r20, 0x02	; 2
 338:	79 f4       	brne	.+30     	; 0x358 <DIO_Init_PIN+0x2a>
		case InputPullup:
		SeTBit(DIO->port.Fullbits,pinNum);
		ClearBit(DIO->DDR.Fullbits,pinNum);
		break;
		case Output:
		SeTBit(DIO->DDR.Fullbits,pinNum);
 33a:	21 81       	ldd	r18, Z+1	; 0x01
 33c:	81 e0       	ldi	r24, 0x01	; 1
 33e:	90 e0       	ldi	r25, 0x00	; 0
 340:	06 2e       	mov	r0, r22
 342:	01 c0       	rjmp	.+2      	; 0x346 <DIO_Init_PIN+0x18>
 344:	88 0f       	add	r24, r24
 346:	0a 94       	dec	r0
 348:	ea f7       	brpl	.-6      	; 0x344 <DIO_Init_PIN+0x16>
 34a:	28 2b       	or	r18, r24
 34c:	21 83       	std	Z+1, r18	; 0x01
		ClearBit(DIO->port.Fullbits,pinNum);
 34e:	92 81       	ldd	r25, Z+2	; 0x02
 350:	80 95       	com	r24
 352:	89 23       	and	r24, r25
 354:	82 83       	std	Z+2, r24	; 0x02
 356:	08 95       	ret
 358:	08 95       	ret
		case InputFloat:
		ClearBit(DIO->port.Fullbits,pinNum);
		ClearBit(DIO->DDR.Fullbits,pinNum);
		break;
		case InputPullup:
		SeTBit(DIO->port.Fullbits,pinNum);
 35a:	22 81       	ldd	r18, Z+2	; 0x02
 35c:	81 e0       	ldi	r24, 0x01	; 1
 35e:	90 e0       	ldi	r25, 0x00	; 0
 360:	06 2e       	mov	r0, r22
 362:	01 c0       	rjmp	.+2      	; 0x366 <DIO_Init_PIN+0x38>
 364:	88 0f       	add	r24, r24
 366:	0a 94       	dec	r0
 368:	ea f7       	brpl	.-6      	; 0x364 <DIO_Init_PIN+0x36>
 36a:	28 2b       	or	r18, r24
 36c:	22 83       	std	Z+2, r18	; 0x02
		ClearBit(DIO->DDR.Fullbits,pinNum);
 36e:	91 81       	ldd	r25, Z+1	; 0x01
 370:	80 95       	com	r24
 372:	89 23       	and	r24, r25
 374:	81 83       	std	Z+1, r24	; 0x01
		break;
 376:	08 95       	ret
}

void DIO_Init_PIN(DIO_Configure *DIO,pinNumber pinNum ,Mode mode){//DIO_Init_PIN(PINB,num,mode output);
	switch(mode){
		case InputFloat:
		ClearBit(DIO->port.Fullbits,pinNum);
 378:	22 81       	ldd	r18, Z+2	; 0x02
 37a:	81 e0       	ldi	r24, 0x01	; 1
 37c:	90 e0       	ldi	r25, 0x00	; 0
 37e:	06 2e       	mov	r0, r22
 380:	01 c0       	rjmp	.+2      	; 0x384 <DIO_Init_PIN+0x56>
 382:	88 0f       	add	r24, r24
 384:	0a 94       	dec	r0
 386:	ea f7       	brpl	.-6      	; 0x382 <DIO_Init_PIN+0x54>
 388:	80 95       	com	r24
 38a:	28 23       	and	r18, r24
 38c:	22 83       	std	Z+2, r18	; 0x02
		ClearBit(DIO->DDR.Fullbits,pinNum);
 38e:	91 81       	ldd	r25, Z+1	; 0x01
 390:	98 23       	and	r25, r24
 392:	91 83       	std	Z+1, r25	; 0x01
		break;
 394:	08 95       	ret

00000396 <DIO_SetPinValue>:
}
void DIO_SetPinValue(DIO_Configure *DIO,pinNumber PinNum,digitalState state ){
	if(PinNum >7 || PinNum<0){
		/*error function */
	}
	switch(state){
 396:	44 23       	and	r20, r20
 398:	71 f0       	breq	.+28     	; 0x3b6 <DIO_SetPinValue+0x20>
 39a:	41 30       	cpi	r20, 0x01	; 1
 39c:	c1 f4       	brne	.+48     	; 0x3ce <DIO_SetPinValue+0x38>
		case HIGH:
		SeTBit(DIO->port.Fullbits,PinNum);
 39e:	fc 01       	movw	r30, r24
 3a0:	42 81       	ldd	r20, Z+2	; 0x02
 3a2:	21 e0       	ldi	r18, 0x01	; 1
 3a4:	30 e0       	ldi	r19, 0x00	; 0
 3a6:	06 2e       	mov	r0, r22
 3a8:	01 c0       	rjmp	.+2      	; 0x3ac <DIO_SetPinValue+0x16>
 3aa:	22 0f       	add	r18, r18
 3ac:	0a 94       	dec	r0
 3ae:	ea f7       	brpl	.-6      	; 0x3aa <DIO_SetPinValue+0x14>
 3b0:	42 2b       	or	r20, r18
 3b2:	42 83       	std	Z+2, r20	; 0x02
		break;
 3b4:	08 95       	ret
		case LOW:
		ClearBit(DIO->port.Fullbits,PinNum);
 3b6:	fc 01       	movw	r30, r24
 3b8:	42 81       	ldd	r20, Z+2	; 0x02
 3ba:	21 e0       	ldi	r18, 0x01	; 1
 3bc:	30 e0       	ldi	r19, 0x00	; 0
 3be:	06 2e       	mov	r0, r22
 3c0:	01 c0       	rjmp	.+2      	; 0x3c4 <DIO_SetPinValue+0x2e>
 3c2:	22 0f       	add	r18, r18
 3c4:	0a 94       	dec	r0
 3c6:	ea f7       	brpl	.-6      	; 0x3c2 <DIO_SetPinValue+0x2c>
 3c8:	20 95       	com	r18
 3ca:	24 23       	and	r18, r20
 3cc:	22 83       	std	Z+2, r18	; 0x02
 3ce:	08 95       	ret

000003d0 <DIO_GetPinValue>:
digitalState DIO_GetPinValue(DIO_Configure *DIO,pinNumber PinNum){
	if(PinNum >7  || PinNum <0){
		/*error function */
	}
	digitalState State=LOW ;
	switch(ReadBit(DIO->PIN.Fullbits,PinNum)){
 3d0:	fc 01       	movw	r30, r24
 3d2:	20 81       	ld	r18, Z
 3d4:	81 e0       	ldi	r24, 0x01	; 1
 3d6:	90 e0       	ldi	r25, 0x00	; 0
 3d8:	06 2e       	mov	r0, r22
 3da:	02 c0       	rjmp	.+4      	; 0x3e0 <DIO_GetPinValue+0x10>
 3dc:	88 0f       	add	r24, r24
 3de:	99 1f       	adc	r25, r25
 3e0:	0a 94       	dec	r0
 3e2:	e2 f7       	brpl	.-8      	; 0x3dc <DIO_GetPinValue+0xc>
 3e4:	30 e0       	ldi	r19, 0x00	; 0
 3e6:	82 23       	and	r24, r18
 3e8:	93 23       	and	r25, r19
 3ea:	02 c0       	rjmp	.+4      	; 0x3f0 <DIO_GetPinValue+0x20>
 3ec:	95 95       	asr	r25
 3ee:	87 95       	ror	r24
 3f0:	6a 95       	dec	r22
 3f2:	e2 f7       	brpl	.-8      	; 0x3ec <DIO_GetPinValue+0x1c>
 3f4:	01 97       	sbiw	r24, 0x01	; 1
 3f6:	11 f4       	brne	.+4      	; 0x3fc <DIO_GetPinValue+0x2c>
		case 0:
		State=LOW;
		break;
		case 1:
		State=HIGH;
 3f8:	81 e0       	ldi	r24, 0x01	; 1
		default:
		/*function  error */
		break;
	}
	return State;
}
 3fa:	08 95       	ret
}
digitalState DIO_GetPinValue(DIO_Configure *DIO,pinNumber PinNum){
	if(PinNum >7  || PinNum <0){
		/*error function */
	}
	digitalState State=LOW ;
 3fc:	80 e0       	ldi	r24, 0x00	; 0
 3fe:	08 95       	ret

00000400 <USART_voidInit>:
void __vector_14(void) __attribute__((signal));
void __vector_15(void) __attribute__((signal));

void USART_voidInit(void)
{
	UBRRH=(uint8_t)(MYUBRR>>8);		    //MYUBBR is the value of UBRR.
 400:	10 bc       	out	0x20, r1	; 32
	UBRRL=(uint8_t)(MYUBRR);
 402:	83 e3       	ldi	r24, 0x33	; 51
 404:	89 b9       	out	0x09, r24	; 9
	UCSRB = (1<<RXEN)|(1<<TXEN);   // Enabling the Transmitter and the Receiver.
 406:	88 e1       	ldi	r24, 0x18	; 24
 408:	8a b9       	out	0x0a, r24	; 10
	UCSRC = (1<<7)|(1<<2)|(1<<1);  // Configure character size of 8 bits, Asynchronous mode and 1 stop bit.
 40a:	86 e8       	ldi	r24, 0x86	; 134
 40c:	80 bd       	out	0x20, r24	; 32
 40e:	08 95       	ret

00000410 <USART_voidTransmit>:
}

void USART_voidTransmit(uint8_t Copy_uint8_tData)
{
	while(!(UCSRA & (1<<5) )); //Polling on UDRE bit to check if the UDR is empty
 410:	5d 9b       	sbis	0x0b, 5	; 11
 412:	fe cf       	rjmp	.-4      	; 0x410 <USART_voidTransmit>
	UDR=Copy_uint8_tData;
 414:	8c b9       	out	0x0c, r24	; 12
 416:	08 95       	ret

00000418 <__vector_13>:
	{
		Global_uint8_tPtr[2]=Copy_uint8_tPtr;
	}
}
void __vector_13(void)
{
 418:	1f 92       	push	r1
 41a:	0f 92       	push	r0
 41c:	0f b6       	in	r0, 0x3f	; 63
 41e:	0f 92       	push	r0
 420:	11 24       	eor	r1, r1
 422:	2f 93       	push	r18
 424:	3f 93       	push	r19
 426:	4f 93       	push	r20
 428:	5f 93       	push	r21
 42a:	6f 93       	push	r22
 42c:	7f 93       	push	r23
 42e:	8f 93       	push	r24
 430:	9f 93       	push	r25
 432:	af 93       	push	r26
 434:	bf 93       	push	r27
 436:	ef 93       	push	r30
 438:	ff 93       	push	r31
	if(Global_uint8_tPtr[0]!=NULL)
 43a:	e0 91 66 00 	lds	r30, 0x0066
 43e:	f0 91 67 00 	lds	r31, 0x0067
 442:	ef 3f       	cpi	r30, 0xFF	; 255
 444:	8f e0       	ldi	r24, 0x0F	; 15
 446:	f8 07       	cpc	r31, r24
 448:	09 f0       	breq	.+2      	; 0x44c <__vector_13+0x34>
		(*Global_uint8_tPtr[0])();  // Executing the function whose address is carried by this pointer
 44a:	09 95       	icall
}
 44c:	ff 91       	pop	r31
 44e:	ef 91       	pop	r30
 450:	bf 91       	pop	r27
 452:	af 91       	pop	r26
 454:	9f 91       	pop	r25
 456:	8f 91       	pop	r24
 458:	7f 91       	pop	r23
 45a:	6f 91       	pop	r22
 45c:	5f 91       	pop	r21
 45e:	4f 91       	pop	r20
 460:	3f 91       	pop	r19
 462:	2f 91       	pop	r18
 464:	0f 90       	pop	r0
 466:	0f be       	out	0x3f, r0	; 63
 468:	0f 90       	pop	r0
 46a:	1f 90       	pop	r1
 46c:	18 95       	reti

0000046e <__vector_14>:



void __vector_14(void)
{
 46e:	1f 92       	push	r1
 470:	0f 92       	push	r0
 472:	0f b6       	in	r0, 0x3f	; 63
 474:	0f 92       	push	r0
 476:	11 24       	eor	r1, r1
 478:	2f 93       	push	r18
 47a:	3f 93       	push	r19
 47c:	4f 93       	push	r20
 47e:	5f 93       	push	r21
 480:	6f 93       	push	r22
 482:	7f 93       	push	r23
 484:	8f 93       	push	r24
 486:	9f 93       	push	r25
 488:	af 93       	push	r26
 48a:	bf 93       	push	r27
 48c:	ef 93       	push	r30
 48e:	ff 93       	push	r31
	if(Global_uint8_tPtr[1]!=NULL)
 490:	e0 91 68 00 	lds	r30, 0x0068
 494:	f0 91 69 00 	lds	r31, 0x0069
 498:	ef 3f       	cpi	r30, 0xFF	; 255
 49a:	8f e0       	ldi	r24, 0x0F	; 15
 49c:	f8 07       	cpc	r31, r24
 49e:	09 f0       	breq	.+2      	; 0x4a2 <__vector_14+0x34>
		(*Global_uint8_tPtr[1])();  // Executing the function whose address is carried by this pointer
 4a0:	09 95       	icall
}
 4a2:	ff 91       	pop	r31
 4a4:	ef 91       	pop	r30
 4a6:	bf 91       	pop	r27
 4a8:	af 91       	pop	r26
 4aa:	9f 91       	pop	r25
 4ac:	8f 91       	pop	r24
 4ae:	7f 91       	pop	r23
 4b0:	6f 91       	pop	r22
 4b2:	5f 91       	pop	r21
 4b4:	4f 91       	pop	r20
 4b6:	3f 91       	pop	r19
 4b8:	2f 91       	pop	r18
 4ba:	0f 90       	pop	r0
 4bc:	0f be       	out	0x3f, r0	; 63
 4be:	0f 90       	pop	r0
 4c0:	1f 90       	pop	r1
 4c2:	18 95       	reti

000004c4 <__vector_15>:

void __vector_15(void)
{
 4c4:	1f 92       	push	r1
 4c6:	0f 92       	push	r0
 4c8:	0f b6       	in	r0, 0x3f	; 63
 4ca:	0f 92       	push	r0
 4cc:	11 24       	eor	r1, r1
 4ce:	2f 93       	push	r18
 4d0:	3f 93       	push	r19
 4d2:	4f 93       	push	r20
 4d4:	5f 93       	push	r21
 4d6:	6f 93       	push	r22
 4d8:	7f 93       	push	r23
 4da:	8f 93       	push	r24
 4dc:	9f 93       	push	r25
 4de:	af 93       	push	r26
 4e0:	bf 93       	push	r27
 4e2:	ef 93       	push	r30
 4e4:	ff 93       	push	r31
	if(Global_uint8_tPtr[2]!=NULL)
 4e6:	e0 91 6a 00 	lds	r30, 0x006A
 4ea:	f0 91 6b 00 	lds	r31, 0x006B
 4ee:	ef 3f       	cpi	r30, 0xFF	; 255
 4f0:	8f e0       	ldi	r24, 0x0F	; 15
 4f2:	f8 07       	cpc	r31, r24
 4f4:	09 f0       	breq	.+2      	; 0x4f8 <__vector_15+0x34>
		(*Global_uint8_tPtr[2])();  // Executing the function whose address is carried by this pointer
 4f6:	09 95       	icall
}
 4f8:	ff 91       	pop	r31
 4fa:	ef 91       	pop	r30
 4fc:	bf 91       	pop	r27
 4fe:	af 91       	pop	r26
 500:	9f 91       	pop	r25
 502:	8f 91       	pop	r24
 504:	7f 91       	pop	r23
 506:	6f 91       	pop	r22
 508:	5f 91       	pop	r21
 50a:	4f 91       	pop	r20
 50c:	3f 91       	pop	r19
 50e:	2f 91       	pop	r18
 510:	0f 90       	pop	r0
 512:	0f be       	out	0x3f, r0	; 63
 514:	0f 90       	pop	r0
 516:	1f 90       	pop	r1
 518:	18 95       	reti

0000051a <Button_intial_ExtInterrupt>:
	
	
	
}
void Button_intial_ExtInterrupt(pushButtonProject *button)
{  
 51a:	cf 93       	push	r28
 51c:	df 93       	push	r29
 51e:	ec 01       	movw	r28, r24
	 MCU_voidEnableGlobalInt();
 520:	0e 94 09 01 	call	0x212	; 0x212 <MCU_voidEnableGlobalInt>
	External_interrupt_Configure(button->buttonInterrupt,button->buttonInterruptModes);
 524:	6d 81       	ldd	r22, Y+5	; 0x05
 526:	8c 81       	ldd	r24, Y+4	; 0x04
 528:	0e 94 49 00 	call	0x92	; 0x92 <External_interrupt_Configure>
	Enable_External_interrupt(button->buttonInterrupt);
 52c:	8c 81       	ldd	r24, Y+4	; 0x04
 52e:	0e 94 a1 00 	call	0x142	; 0x142 <Enable_External_interrupt>
	switch(button->buttonInterrupt){
 532:	2c 81       	ldd	r18, Y+4	; 0x04
 534:	21 30       	cpi	r18, 0x01	; 1
 536:	39 f1       	breq	.+78     	; 0x586 <Button_intial_ExtInterrupt+0x6c>
 538:	b8 f0       	brcs	.+46     	; 0x568 <Button_intial_ExtInterrupt+0x4e>
 53a:	22 30       	cpi	r18, 0x02	; 2
 53c:	49 f0       	breq	.+18     	; 0x550 <Button_intial_ExtInterrupt+0x36>
 53e:	6a 81       	ldd	r22, Y+2	; 0x02
 540:	88 81       	ld	r24, Y
 542:	99 81       	ldd	r25, Y+1	; 0x01
		button->pinButton=PIN2;
		break;
	}
	
	
		button->Prev_StateButton=DIO_GetPinValue(button->Button_DIO,button->pinButton);
 544:	0e 94 e8 01 	call	0x3d0	; 0x3d0 <DIO_GetPinValue>
 548:	8b 83       	std	Y+3, r24	; 0x03
		
}
 54a:	df 91       	pop	r29
 54c:	cf 91       	pop	r28
 54e:	08 95       	ret
		button->Button_DIO=PIND;
		button->pinButton=PIN3;
		break;
		
		case INT2:
		button->Button_DIO=PINB;
 550:	86 e3       	ldi	r24, 0x36	; 54
 552:	90 e0       	ldi	r25, 0x00	; 0
 554:	99 83       	std	Y+1, r25	; 0x01
 556:	88 83       	st	Y, r24
		button->pinButton=PIN2;
 558:	2a 83       	std	Y+2, r18	; 0x02
		break;
 55a:	62 e0       	ldi	r22, 0x02	; 2
	}
	
	
		button->Prev_StateButton=DIO_GetPinValue(button->Button_DIO,button->pinButton);
 55c:	0e 94 e8 01 	call	0x3d0	; 0x3d0 <DIO_GetPinValue>
 560:	8b 83       	std	Y+3, r24	; 0x03
		
}
 562:	df 91       	pop	r29
 564:	cf 91       	pop	r28
 566:	08 95       	ret
	 MCU_voidEnableGlobalInt();
	External_interrupt_Configure(button->buttonInterrupt,button->buttonInterruptModes);
	Enable_External_interrupt(button->buttonInterrupt);
	switch(button->buttonInterrupt){
		case INT0:
		button->Button_DIO=PIND;
 568:	80 e3       	ldi	r24, 0x30	; 48
 56a:	90 e0       	ldi	r25, 0x00	; 0
 56c:	99 83       	std	Y+1, r25	; 0x01
 56e:	88 83       	st	Y, r24
		button->pinButton=PIN2;
 570:	82 e0       	ldi	r24, 0x02	; 2
 572:	8a 83       	std	Y+2, r24	; 0x02
		break;
 574:	80 e3       	ldi	r24, 0x30	; 48
 576:	90 e0       	ldi	r25, 0x00	; 0
 578:	62 e0       	ldi	r22, 0x02	; 2
		button->pinButton=PIN2;
		break;
	}
	
	
		button->Prev_StateButton=DIO_GetPinValue(button->Button_DIO,button->pinButton);
 57a:	0e 94 e8 01 	call	0x3d0	; 0x3d0 <DIO_GetPinValue>
 57e:	8b 83       	std	Y+3, r24	; 0x03
		
}
 580:	df 91       	pop	r29
 582:	cf 91       	pop	r28
 584:	08 95       	ret
		case INT0:
		button->Button_DIO=PIND;
		button->pinButton=PIN2;
		break;
		case INT1:
		button->Button_DIO=PIND;
 586:	80 e3       	ldi	r24, 0x30	; 48
 588:	90 e0       	ldi	r25, 0x00	; 0
 58a:	99 83       	std	Y+1, r25	; 0x01
 58c:	88 83       	st	Y, r24
		button->pinButton=PIN3;
 58e:	83 e0       	ldi	r24, 0x03	; 3
 590:	8a 83       	std	Y+2, r24	; 0x02
		break;
 592:	80 e3       	ldi	r24, 0x30	; 48
 594:	90 e0       	ldi	r25, 0x00	; 0
 596:	63 e0       	ldi	r22, 0x03	; 3
		button->pinButton=PIN2;
		break;
	}
	
	
		button->Prev_StateButton=DIO_GetPinValue(button->Button_DIO,button->pinButton);
 598:	0e 94 e8 01 	call	0x3d0	; 0x3d0 <DIO_GetPinValue>
 59c:	8b 83       	std	Y+3, r24	; 0x03
		
}
 59e:	df 91       	pop	r29
 5a0:	cf 91       	pop	r28
 5a2:	08 95       	ret

000005a4 <GetValue_ExtPushButton>:

digitalState GetValue_ExtPushButton(pushButtonProject *button)
{				  switch(button->buttonInterrupt)
 5a4:	fc 01       	movw	r30, r24
 5a6:	24 81       	ldd	r18, Z+4	; 0x04
 5a8:	21 30       	cpi	r18, 0x01	; 1
 5aa:	d9 f0       	breq	.+54     	; 0x5e2 <GetValue_ExtPushButton+0x3e>
 5ac:	78 f0       	brcs	.+30     	; 0x5cc <GetValue_ExtPushButton+0x28>
 5ae:	22 30       	cpi	r18, 0x02	; 2
 5b0:	29 f0       	breq	.+10     	; 0x5bc <GetValue_ExtPushButton+0x18>
 5b2:	62 81       	ldd	r22, Z+2	; 0x02
 5b4:	80 81       	ld	r24, Z
 5b6:	91 81       	ldd	r25, Z+1	; 0x01
					button->Button_DIO=PINB;
					button->pinButton=PIN2;
					break;
					}

			return DIO_GetPinValue(button->Button_DIO,button->pinButton);
 5b8:	0c 94 e8 01 	jmp	0x3d0	; 0x3d0 <DIO_GetPinValue>
					button->Button_DIO=PIND;
					button->pinButton=PIN3;
					break;
	
					case INT2:
					button->Button_DIO=PINB;
 5bc:	86 e3       	ldi	r24, 0x36	; 54
 5be:	90 e0       	ldi	r25, 0x00	; 0
 5c0:	91 83       	std	Z+1, r25	; 0x01
 5c2:	80 83       	st	Z, r24
					button->pinButton=PIN2;
 5c4:	22 83       	std	Z+2, r18	; 0x02
					break;
 5c6:	62 e0       	ldi	r22, 0x02	; 2
					}

			return DIO_GetPinValue(button->Button_DIO,button->pinButton);
 5c8:	0c 94 e8 01 	jmp	0x3d0	; 0x3d0 <DIO_GetPinValue>

digitalState GetValue_ExtPushButton(pushButtonProject *button)
{				  switch(button->buttonInterrupt)
					{
					case INT0:
					button->Button_DIO=PIND;
 5cc:	80 e3       	ldi	r24, 0x30	; 48
 5ce:	90 e0       	ldi	r25, 0x00	; 0
 5d0:	91 83       	std	Z+1, r25	; 0x01
 5d2:	80 83       	st	Z, r24
					button->pinButton=PIN2;
 5d4:	82 e0       	ldi	r24, 0x02	; 2
 5d6:	82 83       	std	Z+2, r24	; 0x02
					break;
 5d8:	80 e3       	ldi	r24, 0x30	; 48
 5da:	90 e0       	ldi	r25, 0x00	; 0
 5dc:	62 e0       	ldi	r22, 0x02	; 2
					button->Button_DIO=PINB;
					button->pinButton=PIN2;
					break;
					}

			return DIO_GetPinValue(button->Button_DIO,button->pinButton);
 5de:	0c 94 e8 01 	jmp	0x3d0	; 0x3d0 <DIO_GetPinValue>
					case INT0:
					button->Button_DIO=PIND;
					button->pinButton=PIN2;
					break;
					case INT1:
					button->Button_DIO=PIND;
 5e2:	80 e3       	ldi	r24, 0x30	; 48
 5e4:	90 e0       	ldi	r25, 0x00	; 0
 5e6:	91 83       	std	Z+1, r25	; 0x01
 5e8:	80 83       	st	Z, r24
					button->pinButton=PIN3;
 5ea:	83 e0       	ldi	r24, 0x03	; 3
 5ec:	82 83       	std	Z+2, r24	; 0x02
					break;
 5ee:	80 e3       	ldi	r24, 0x30	; 48
 5f0:	90 e0       	ldi	r25, 0x00	; 0
 5f2:	63 e0       	ldi	r22, 0x03	; 3
					button->Button_DIO=PINB;
					button->pinButton=PIN2;
					break;
					}

			return DIO_GetPinValue(button->Button_DIO,button->pinButton);
 5f4:	0c 94 e8 01 	jmp	0x3d0	; 0x3d0 <DIO_GetPinValue>

000005f8 <Speed_up>:
	}
	
}
void Speed_up(){
	
	if(GetValue_ExtPushButton(&button1)==LOW)
 5f8:	82 e7       	ldi	r24, 0x72	; 114
 5fa:	90 e0       	ldi	r25, 0x00	; 0
 5fc:	0e 94 d2 02 	call	0x5a4	; 0x5a4 <GetValue_ExtPushButton>
 600:	81 11       	cpse	r24, r1
 602:	19 c0       	rjmp	.+50     	; 0x636 <Speed_up+0x3e>
	{
		index++;
 604:	e0 91 78 00 	lds	r30, 0x0078
 608:	ef 5f       	subi	r30, 0xFF	; 255

		if(index >MaxNumSpeed)
 60a:	eb 30       	cpi	r30, 0x0B	; 11
 60c:	54 f4       	brge	.+20     	; 0x622 <Speed_up+0x2a>
}
void Speed_up(){
	
	if(GetValue_ExtPushButton(&button1)==LOW)
	{
		index++;
 60e:	e0 93 78 00 	sts	0x0078, r30
 612:	ff 27       	eor	r31, r31
 614:	e7 fd       	sbrc	r30, 7
 616:	f0 95       	com	r31

		if(index >MaxNumSpeed)
		index=MaxNumSpeed;
		
		USART_voidTransmit(Speed_arr[index]);
 618:	e7 58       	subi	r30, 0x87	; 135
 61a:	ff 4f       	sbci	r31, 0xFF	; 255
 61c:	80 81       	ld	r24, Z
 61e:	0c 94 08 02 	jmp	0x410	; 0x410 <USART_voidTransmit>
	if(GetValue_ExtPushButton(&button1)==LOW)
	{
		index++;

		if(index >MaxNumSpeed)
		index=MaxNumSpeed;
 622:	8a e0       	ldi	r24, 0x0A	; 10
 624:	80 93 78 00 	sts	0x0078, r24
 628:	ea e0       	ldi	r30, 0x0A	; 10
 62a:	f0 e0       	ldi	r31, 0x00	; 0
		
		USART_voidTransmit(Speed_arr[index]);
 62c:	e7 58       	subi	r30, 0x87	; 135
 62e:	ff 4f       	sbci	r31, 0xFF	; 255
 630:	80 81       	ld	r24, Z
 632:	0c 94 08 02 	jmp	0x410	; 0x410 <USART_voidTransmit>
 636:	08 95       	ret

00000638 <Slow_down>:

}

void Slow_down(){
	
	if(GetValue_ExtPushButton(&button2)==LOW)
 638:	8c e6       	ldi	r24, 0x6C	; 108
 63a:	90 e0       	ldi	r25, 0x00	; 0
 63c:	0e 94 d2 02 	call	0x5a4	; 0x5a4 <GetValue_ExtPushButton>
 640:	81 11       	cpse	r24, r1
 642:	0f c0       	rjmp	.+30     	; 0x662 <Slow_down+0x2a>
	{
		index--;
 644:	e0 91 78 00 	lds	r30, 0x0078
 648:	e1 50       	subi	r30, 0x01	; 1
		if(index<MinNumSpeed)
 64a:	e7 fd       	sbrc	r30, 7
 64c:	0b c0       	rjmp	.+22     	; 0x664 <Slow_down+0x2c>

void Slow_down(){
	
	if(GetValue_ExtPushButton(&button2)==LOW)
	{
		index--;
 64e:	e0 93 78 00 	sts	0x0078, r30
 652:	ff 27       	eor	r31, r31
 654:	e7 fd       	sbrc	r30, 7
 656:	f0 95       	com	r31
		if(index<MinNumSpeed)
		index=MinNumSpeed;
		USART_voidTransmit(Speed_arr[index]);
 658:	e7 58       	subi	r30, 0x87	; 135
 65a:	ff 4f       	sbci	r31, 0xFF	; 255
 65c:	80 81       	ld	r24, Z
 65e:	0c 94 08 02 	jmp	0x410	; 0x410 <USART_voidTransmit>
 662:	08 95       	ret
	
	if(GetValue_ExtPushButton(&button2)==LOW)
	{
		index--;
		if(index<MinNumSpeed)
		index=MinNumSpeed;
 664:	10 92 78 00 	sts	0x0078, r1
 668:	e0 e0       	ldi	r30, 0x00	; 0
 66a:	f0 e0       	ldi	r31, 0x00	; 0
		USART_voidTransmit(Speed_arr[index]);
 66c:	e7 58       	subi	r30, 0x87	; 135
 66e:	ff 4f       	sbci	r31, 0xFF	; 255
 670:	80 81       	ld	r24, Z
 672:	0c 94 08 02 	jmp	0x410	; 0x410 <USART_voidTransmit>

00000676 <main>:
void Speed_up();
void Slow_down();

int main(void)
{
	USART_voidInit();
 676:	0e 94 00 02 	call	0x400	; 0x400 <USART_voidInit>

	
	
	Button_intial_ExtInterrupt(&button1);
 67a:	82 e7       	ldi	r24, 0x72	; 114
 67c:	90 e0       	ldi	r25, 0x00	; 0
 67e:	0e 94 8d 02 	call	0x51a	; 0x51a <Button_intial_ExtInterrupt>
	Button_intial_ExtInterrupt(&button2);
 682:	8c e6       	ldi	r24, 0x6C	; 108
 684:	90 e0       	ldi	r25, 0x00	; 0
 686:	0e 94 8d 02 	call	0x51a	; 0x51a <Button_intial_ExtInterrupt>
	
	
	SetCallBackFunction(INT0 ,Speed_up);
 68a:	6c ef       	ldi	r22, 0xFC	; 252
 68c:	72 e0       	ldi	r23, 0x02	; 2
 68e:	80 e0       	ldi	r24, 0x00	; 0
 690:	0e 94 d7 00 	call	0x1ae	; 0x1ae <SetCallBackFunction>
	SetCallBackFunction(INT1 ,Slow_down);
 694:	6c e1       	ldi	r22, 0x1C	; 28
 696:	73 e0       	ldi	r23, 0x03	; 3
 698:	81 e0       	ldi	r24, 0x01	; 1
 69a:	0e 94 d7 00 	call	0x1ae	; 0x1ae <SetCallBackFunction>
 69e:	ff cf       	rjmp	.-2      	; 0x69e <main+0x28>

000006a0 <_exit>:
 6a0:	f8 94       	cli

000006a2 <__stop_program>:
 6a2:	ff cf       	rjmp	.-2      	; 0x6a2 <__stop_program>
